target datalayout = "e-m:e-p270:32:32-p271:32:32-p272:64:64-i64:64-i128:128-f80:128-n8:16:32:64-S128"
target triple = "x86_64-pc-linux-gnu"

%struct.SpGistScanOpaqueData = type { %struct.SpGistState, ptr, ptr, ptr, i8, i8, i32, ptr, i32, i32, ptr, ptr, ptr, i32, %struct.FmgrInfo, %struct.FmgrInfo, ptr, ptr, ptr, i64, i8, ptr, i32, i32, [408 x %struct.ItemPointerData], [408 x i8], [408 x i8], [408 x ptr], [408 x ptr] }
%struct.SpGistState = type { ptr, %struct.spgConfigOut, %struct.SpGistTypeDesc, %struct.SpGistTypeDesc, %struct.SpGistTypeDesc, %struct.SpGistTypeDesc, ptr, ptr, i32, i8 }
%struct.spgConfigOut = type { i32, i32, i32, i8, i8 }
%struct.SpGistTypeDesc = type { i32, i16, i8, i8, i8 }
%struct.FmgrInfo = type { ptr, i32, i16, i8, i8, i8, ptr, ptr, ptr }
%struct.ItemPointerData = type { %struct.BlockIdData, i16 }
%struct.BlockIdData = type { i16, i16 }
%struct.IndexScanDescData = type { ptr, ptr, ptr, i32, i32, ptr, ptr, i8, i8, i8, i8, i8, ptr, ptr, ptr, ptr, ptr, %struct.ItemPointerData, i8, ptr, i8, ptr, ptr, i8, ptr }

; Function Attrs: nounwind uwtable
define dso_local i64 @spggetbitmap(ptr noundef %0, ptr noundef %1) #0 {
  %3 = alloca ptr, align 8
  %4 = alloca ptr, align 8
  %5 = alloca ptr, align 8
  store ptr %0, ptr %3, align 8
  store ptr %1, ptr %4, align 8
  call void @llvm.lifetime.start.p0(i64 8, ptr %5) #9
  %6 = load ptr, ptr %3, align 8
  %7 = getelementptr inbounds nuw %struct.IndexScanDescData, ptr %6, i32 0, i32 12
  %8 = load ptr, ptr %7, align 8
  store ptr %8, ptr %5, align 8
  %9 = load ptr, ptr %5, align 8
  %10 = getelementptr inbounds nuw %struct.SpGistScanOpaqueData, ptr %9, i32 0, i32 20
  store i8 0, ptr %10, align 8
  %11 = load ptr, ptr %4, align 8
  %12 = load ptr, ptr %5, align 8
  %13 = getelementptr inbounds nuw %struct.SpGistScanOpaqueData, ptr %12, i32 0, i32 18
  store ptr %11, ptr %13, align 8
  %14 = load ptr, ptr %5, align 8
  %15 = getelementptr inbounds nuw %struct.SpGistScanOpaqueData, ptr %14, i32 0, i32 19
  store i64 0, ptr %15, align 8
  %16 = load ptr, ptr %3, align 8
  %17 = getelementptr inbounds nuw %struct.IndexScanDescData, ptr %16, i32 0, i32 1
  %18 = load ptr, ptr %17, align 8
  %19 = load ptr, ptr %5, align 8
  call void @spgWalk(ptr noundef %18, ptr noundef %19, i1 noundef zeroext true, ptr noundef @storeBitmap)
  %20 = load ptr, ptr %5, align 8
  %21 = getelementptr inbounds nuw %struct.SpGistScanOpaqueData, ptr %20, i32 0, i32 19
  %22 = load i64, ptr %21, align 8
  call void @llvm.lifetime.end.p0(i64 8, ptr %5) #9
  ret i64 %22
}