; Function Attrs: nounwind uwtable
define dso_local i64 @spggetbitmap(ptr noundef readonly captures(none) %0, ptr noundef %1) local_unnamed_addr #0 {
  %3 = getelementptr inbounds nuw i8, ptr %0, i64 56
  %4 = load ptr, ptr %3, align 8
  %5 = getelementptr inbounds nuw i8, ptr %4, i64 304
  store i8 0, ptr %5, align 8
  %6 = getelementptr inbounds nuw i8, ptr %4, i64 288
  store ptr %1, ptr %6, align 8
  %7 = getelementptr inbounds nuw i8, ptr %4, i64 296
  store i64 0, ptr %7, align 8
  %8 = getelementptr inbounds nuw i8, ptr %0, i64 8
  %9 = load ptr, ptr %8, align 8
  tail call fastcc void @spgWalk(ptr noundef %9, ptr noundef %4, i1 noundef zeroext true, ptr noundef nonnull @storeBitmap)
  %10 = load i64, ptr %7, align 8
  ret i64 %10
}